target datalayout = "e-m:e-p270:32:32-p271:32:32-p272:64:64-i64:64-i128:128-f80:128-n8:16:32:64-S128"
target triple = "x86_64-pc-linux-gnu"

%struct.lbttcp_tag_entry_t = type { ptr, i32, i32, i32, i32, i32, i32 }

; Function Attrs: null_pointer_is_valid sspstrong uwtable
define internal ptr @lbttcp_tag_copy_cb(ptr noundef %0, ptr noundef %1, i64 noundef %2) #0 {
  %4 = alloca ptr, align 8
  %5 = alloca ptr, align 8
  %6 = alloca i64, align 8
  %7 = alloca ptr, align 8
  %8 = alloca ptr, align 8
  store ptr %0, ptr %4, align 8
  store ptr %1, ptr %5, align 8
  store i64 %2, ptr %6, align 8
  call void @llvm.lifetime.start.p0(i64 8, ptr %7) #9
  %9 = load ptr, ptr %5, align 8
  store ptr %9, ptr %7, align 8
  call void @llvm.lifetime.start.p0(i64 8, ptr %8) #9
  %10 = load ptr, ptr %4, align 8
  store ptr %10, ptr %8, align 8
  %11 = load ptr, ptr %7, align 8
  %12 = getelementptr inbounds nuw %struct.lbttcp_tag_entry_t, ptr %11, i32 0, i32 0
  %13 = load ptr, ptr %12, align 8
  %14 = call noalias ptr @g_strdup(ptr noundef %13)
  %15 = load ptr, ptr %8, align 8
  %16 = getelementptr inbounds nuw %struct.lbttcp_tag_entry_t, ptr %15, i32 0, i32 0
  store ptr %14, ptr %16, align 8
  %17 = load ptr, ptr %7, align 8
  %18 = getelementptr inbounds nuw %struct.lbttcp_tag_entry_t, ptr %17, i32 0, i32 1
  %19 = load i32, ptr %18, align 8
  %20 = load ptr, ptr %8, align 8
  %21 = getelementptr inbounds nuw %struct.lbttcp_tag_entry_t, ptr %20, i32 0, i32 1
  store i32 %19, ptr %21, align 8
  %22 = load ptr, ptr %7, align 8
  %23 = getelementptr inbounds nuw %struct.lbttcp_tag_entry_t, ptr %22, i32 0, i32 2
  %24 = load i32, ptr %23, align 4
  %25 = load ptr, ptr %8, align 8
  %26 = getelementptr inbounds nuw %struct.lbttcp_tag_entry_t, ptr %25, i32 0, i32 2
  store i32 %24, ptr %26, align 4
  %27 = load ptr, ptr %7, align 8
  %28 = getelementptr inbounds nuw %struct.lbttcp_tag_entry_t, ptr %27, i32 0, i32 3
  %29 = load i32, ptr %28, align 8
  %30 = load ptr, ptr %8, align 8
  %31 = getelementptr inbounds nuw %struct.lbttcp_tag_entry_t, ptr %30, i32 0, i32 3
  store i32 %29, ptr %31, align 8
  %32 = load ptr, ptr %7, align 8
  %33 = getelementptr inbounds nuw %struct.lbttcp_tag_entry_t, ptr %32, i32 0, i32 4
  %34 = load i32, ptr %33, align 4
  %35 = load ptr, ptr %8, align 8
  %36 = getelementptr inbounds nuw %struct.lbttcp_tag_entry_t, ptr %35, i32 0, i32 4
  store i32 %34, ptr %36, align 4
  %37 = load ptr, ptr %7, align 8
  %38 = getelementptr inbounds nuw %struct.lbttcp_tag_entry_t, ptr %37, i32 0, i32 5
  %39 = load i32, ptr %38, align 8
  %40 = load ptr, ptr %8, align 8
  %41 = getelementptr inbounds nuw %struct.lbttcp_tag_entry_t, ptr %40, i32 0, i32 5
  store i32 %39, ptr %41, align 8
  %42 = load ptr, ptr %7, align 8
  %43 = getelementptr inbounds nuw %struct.lbttcp_tag_entry_t, ptr %42, i32 0, i32 6
  %44 = load i32, ptr %43, align 4
  %45 = load ptr, ptr %8, align 8
  %46 = getelementptr inbounds nuw %struct.lbttcp_tag_entry_t, ptr %45, i32 0, i32 6
  store i32 %44, ptr %46, align 4
  %47 = load ptr, ptr %8, align 8
  call void @llvm.lifetime.end.p0(i64 8, ptr %8) #9
  call void @llvm.lifetime.end.p0(i64 8, ptr %7) #9
  ret ptr %47
}