; Function Attrs: null_pointer_is_valid sspstrong uwtable
define internal noundef ptr @lbttcp_tag_copy_cb(ptr noundef returned writeonly captures(ret: address, provenance) initializes((0, 32)) %0, ptr noundef readonly captures(none) %1, i64 %2) #0 {
  %4 = load ptr, ptr %1, align 8
  %5 = tail call noalias ptr @g_strdup(ptr noundef %4)
  store ptr %5, ptr %0, align 8
  %6 = getelementptr inbounds nuw i8, ptr %1, i64 8
  %7 = load i32, ptr %6, align 8
  %8 = getelementptr inbounds nuw i8, ptr %0, i64 8
  store i32 %7, ptr %8, align 8
  %9 = getelementptr inbounds nuw i8, ptr %1, i64 12
  %10 = load i32, ptr %9, align 4
  %11 = getelementptr inbounds nuw i8, ptr %0, i64 12
  store i32 %10, ptr %11, align 4
  %12 = getelementptr inbounds nuw i8, ptr %1, i64 16
  %13 = load i32, ptr %12, align 8
  %14 = getelementptr inbounds nuw i8, ptr %0, i64 16
  store i32 %13, ptr %14, align 8
  %15 = getelementptr inbounds nuw i8, ptr %1, i64 20
  %16 = load i32, ptr %15, align 4
  %17 = getelementptr inbounds nuw i8, ptr %0, i64 20
  store i32 %16, ptr %17, align 4
  %18 = getelementptr inbounds nuw i8, ptr %1, i64 24
  %19 = load i32, ptr %18, align 8
  %20 = getelementptr inbounds nuw i8, ptr %0, i64 24
  store i32 %19, ptr %20, align 8
  %21 = getelementptr inbounds nuw i8, ptr %1, i64 28
  %22 = load i32, ptr %21, align 4
  %23 = getelementptr inbounds nuw i8, ptr %0, i64 28
  store i32 %22, ptr %23, align 4
  ret ptr %0
}